(lp0
(lp1
(dp2
S'pre'
p3
(dp4
S'debias'
p5
I0
sS'gridsize'
p6
I20
sS'initialtrials'
p7
I0
sS'mouse_protocol'
p8
S'patternstim_ephys_spot'
p9
sS'ratio_training'
p10
F1.0
sS'lickgraceperiod'
p11
I600
sS'probeMode'
p12
I0
sS'reinforcementpercentage'
p13
I1
sS'ratio_probe'
p14
F0.0
sS'rig'
p15
S'Polygon'
p16
sS'laserdur'
p17
I100
sS'graylevel'
p18
I1
sS'order'
p19
I0
sS'initialport'
p20
S'Left'
p21
sS'ratio_training_probe'
p22
F0.0
ssS'stim'
p23
(dp24
S'probe'
p25
(lp26
sS'nontarget'
p27
(lp28
S'Aa80'
p29
aS'Sb80'
p30
aS'Bw80'
p31
aS'Wg80'
p32
aS'Gi80'
p33
aS'Sj80'
p34
aS'R80'
p35
asS'probeTraining'
p36
(lp37
S'R10'
p38
asS'target'
p39
g28
ssS'completed'
p40
I0
sS'patterns'
p41
(dp42
g29
(dp43
S'defn'
p44
(dp45
S'Aa'
p46
(dp47
S'onset'
p48
I10
sS'dur'
p49
I80
ssssg32
(dp50
g44
(dp51
S'Wg'
p52
(dp53
g48
I10
sg49
I80
ssssg30
(dp54
g44
(dp55
S'Sb'
p56
(dp57
g48
I10
sg49
I80
ssssg33
(dp58
g44
(dp59
S'Gi'
p60
(dp61
g48
I10
sg49
I80
ssssg31
(dp62
g44
(dp63
S'Bw'
p64
(dp65
g48
I10
sg49
I80
ssssg34
(dp66
g44
(dp67
S'Sj'
p68
(dp69
g48
I10
sg49
I80
ssssg35
(dp70
g44
(dp71
S'R'
p72
(dp73
g48
I10
sg49
I80
sssssS'post'
p74
(dp75
S'right_plot'
p76
I0
sS'left_plot'
p77
I0
sS'target_right_acc'
p78
I0
sS'target_left_acc'
p79
I0
sS'comments'
p80
S''
p81
sS'quit-o-meter'
p82
I0
sS'total_trials'
p83
I0
sS'h5file'
p84
S'0'
p85
sS'date'
p86
g81
sS'result_img'
p87
g81
sS'id'
p88
S'1'
p89
ssS'odors'
p90
(dp91
S'probeTraining'
p92
(lp93
sS'probe'
p94
(lp95
sS'target'
p96
(lp97
sS'nontarget'
p98
(lp99
ssaa(dp100
S'list'
p101
(dp102
g46
(lp103
I23
aI22
asg52
(lp104
I22
aI17
asg68
(lp105
I28
aI19
asg64
(lp106
I28
aI21
asg56
(lp107
I27
aI16
asg72
(lp108
(I27
I20
tp109
a(I20
I20
tp110
a(I30
I20
tp111
a(I24
I20
tp112
a(I20
I18
tp113
a(I30
I18
tp114
a(I21
I18
tp115
a(I29
I18
tp116
a(I28
I18
tp117
a(I25
I18
tp118
a(I26
I18
tp119
a(I23
I18
tp120
a(I22
I18
tp121
a(I21
I17
tp122
a(I31
I17
tp123
a(I30
I17
tp124
a(I29
I17
tp125
a(I28
I17
tp126
a(I27
I17
tp127
a(I26
I17
tp128
a(I25
I17
tp129
a(I24
I17
tp130
a(I23
I17
tp131
a(I32
I17
tp132
a(I32
I16
tp133
a(I23
I16
tp134
a(I24
I16
tp135
a(I25
I16
tp136
a(I26
I16
tp137
a(I28
I16
tp138
a(I29
I16
tp139
a(I30
I16
tp140
a(I31
I16
tp141
a(I31
I15
tp142
a(I24
I15
tp143
a(I25
I15
tp144
a(I26
I15
tp145
a(I28
I15
tp146
a(I29
I15
tp147
a(I30
I15
tp148
a(I27
I15
tp149
a(I31
I14
tp150
a(I25
I14
tp151
a(I26
I14
tp152
a(I27
I14
tp153
a(I28
I14
tp154
a(I29
I14
tp155
a(I30
I14
tp156
a(I20
I19
tp157
a(I30
I19
tp158
a(I29
I19
tp159
a(I27
I19
tp160
a(I26
I19
tp161
a(I25
I19
tp162
a(I24
I19
tp163
a(I23
I19
tp164
a(I19
I20
tp165
a(I21
I20
tp166
a(I22
I20
tp167
a(I23
I20
tp168
a(I29
I20
tp169
a(I28
I20
tp170
a(I26
I20
tp171
a(I25
I20
tp172
a(I20
I21
tp173
a(I27
I21
tp174
a(I29
I21
tp175
a(I25
I21
tp176
a(I24
I21
tp177
a(I26
I21
tp178
a(I23
I21
tp179
a(I22
I21
tp180
a(I21
I21
tp181
a(I20
I22
tp182
a(I21
I22
tp183
a(I29
I22
tp184
a(I28
I22
tp185
a(I27
I22
tp186
a(I26
I22
tp187
a(I25
I22
tp188
a(I24
I22
tp189
a(I22
I22
tp190
a(I21
I23
tp191
a(I28
I23
tp192
a(I27
I23
tp193
a(I26
I23
tp194
a(I25
I23
tp195
a(I24
I23
tp196
a(I23
I23
tp197
a(I22
I23
tp198
a(I28
I13
tp199
a(I27
I13
tp200
a(I30
I13
tp201
a(I29
I13
tp202
a(I31
I13
tp203
a(I29
I23
tp204
a(I28
I24
tp205
a(I26
I24
tp206
a(I27
I24
tp207
a(I22
I24
tp208
a(I23
I24
tp209
a(I24
I24
tp210
a(I25
I24
tp211
a(I23
I25
tp212
a(I24
I25
tp213
a(I27
I25
tp214
a(I26
I25
tp215
a(I25
I25
tp216
a(I27
I18
tp217
a(I22
I19
tp218
a(I21
I19
tp219
asg60
(lp220
I24
aI18
assS'emulation'
p221
I00
sS'finalized'
p222
I0
sa.