(lp0
(lp1
(dp2
S'pre'
p3
(dp4
S'debias'
p5
I0
sS'gridsize'
p6
I20
sS'initialtrials'
p7
I0
sS'mouse_protocol'
p8
S'patternstim_ephys_spot'
p9
sS'ratio_training'
p10
F1.0
sS'lickgraceperiod'
p11
I600
sS'probeMode'
p12
I0
sS'reinforcementpercentage'
p13
I1
sS'ratio_probe'
p14
F0.0
sS'rig'
p15
S'Polygon'
p16
sS'laserdur'
p17
I100
sS'graylevel'
p18
I1
sS'order'
p19
I0
sS'initialport'
p20
S'Left'
p21
sS'ratio_training_probe'
p22
F0.0
ssS'stim'
p23
(dp24
S'probe'
p25
(lp26
sS'nontarget'
p27
(lp28
S'Aa80'
p29
aS'Aw80'
p30
aS'Wi80'
p31
aS'Zq80'
p32
aS'Nn80'
p33
aS'Os80'
p34
aS'R80'
p35
asS'probeTraining'
p36
(lp37
S'R10'
p38
asS'target'
p39
g28
ssS'completed'
p40
I0
sS'patterns'
p41
(dp42
g31
(dp43
S'defn'
p44
(dp45
S'Wi'
p46
(dp47
S'onset'
p48
I10
sS'dur'
p49
I80
ssssg33
(dp50
g44
(dp51
S'Nn'
p52
(dp53
g48
I10
sg49
I80
ssssg29
(dp54
g44
(dp55
S'Aa'
p56
(dp57
g48
I10
sg49
I80
ssssg34
(dp58
g44
(dp59
S'Os'
p60
(dp61
g48
I10
sg49
I80
ssssg30
(dp62
g44
(dp63
S'Aw'
p64
(dp65
g48
I10
sg49
I80
ssssg35
(dp66
g44
(dp67
S'R'
p68
(dp69
g48
I10
sg49
I80
ssssg32
(dp70
g44
(dp71
S'Zq'
p72
(dp73
g48
I10
sg49
I80
sssssS'post'
p74
(dp75
S'right_plot'
p76
I0
sS'left_plot'
p77
I0
sS'target_right_acc'
p78
I0
sS'target_left_acc'
p79
I0
sS'comments'
p80
S''
p81
sS'quit-o-meter'
p82
I0
sS'total_trials'
p83
I0
sS'h5file'
p84
S'0'
p85
sS'date'
p86
g81
sS'result_img'
p87
g81
sS'id'
p88
S'1'
p89
ssS'odors'
p90
(dp91
S'probeTraining'
p92
(lp93
sS'probe'
p94
(lp95
sS'target'
p96
(lp97
sS'nontarget'
p98
(lp99
ssaa(dp100
S'list'
p101
(dp102
g56
(lp103
I27
aI14
asg52
(lp104
I29
aI20
asg46
(lp105
I29
aI17
asg68
(lp106
(I28
I14
tp107
a(I26
I14
tp108
a(I25
I14
tp109
a(I24
I15
tp110
a(I25
I15
tp111
a(I26
I15
tp112
a(I27
I15
tp113
a(I28
I15
tp114
a(I29
I15
tp115
a(I29
I16
tp116
a(I28
I16
tp117
a(I26
I16
tp118
a(I25
I16
tp119
a(I24
I16
tp120
a(I24
I17
tp121
a(I25
I17
tp122
a(I26
I17
tp123
a(I27
I17
tp124
a(I28
I17
tp125
a(I30
I17
tp126
a(I30
I18
tp127
a(I29
I18
tp128
a(I28
I18
tp129
a(I27
I18
tp130
a(I25
I18
tp131
a(I24
I18
tp132
a(I24
I19
tp133
a(I25
I19
tp134
a(I26
I19
tp135
a(I27
I19
tp136
a(I28
I19
tp137
a(I29
I19
tp138
a(I25
I20
tp139
a(I26
I20
tp140
a(I27
I20
tp141
a(I28
I20
tp142
a(I29
I21
tp143
a(I28
I21
tp144
a(I27
I21
tp145
a(I25
I21
tp146
a(I25
I22
tp147
a(I26
I22
tp148
a(I27
I22
tp149
a(I28
I22
tp150
asg64
(lp151
I27
aI16
asg60
(lp152
I26
aI21
asg72
(lp153
I26
aI18
assS'emulation'
p154
I00
sS'finalized'
p155
I0
sa.