(lp0
(lp1
(dp2
S'pre'
p3
(dp4
S'debias'
p5
I0
sS'gridsize'
p6
I20
sS'initialtrials'
p7
I0
sS'mouse_protocol'
p8
S'patternstim_ephys_spot'
p9
sS'ratio_training'
p10
F1.0
sS'lickgraceperiod'
p11
I600
sS'probeMode'
p12
I0
sS'reinforcementpercentage'
p13
I1
sS'ratio_probe'
p14
F0.0
sS'rig'
p15
S'Polygon'
p16
sS'laserdur'
p17
I100
sS'graylevel'
p18
I1
sS'order'
p19
I0
sS'initialport'
p20
S'Left'
p21
sS'ratio_training_probe'
p22
F0.0
ssS'stim'
p23
(dp24
S'probe'
p25
(lp26
sS'nontarget'
p27
(lp28
S'Aa80'
p29
aS'Si80'
p30
aS'Gw80'
p31
aS'Vb80'
p32
aS'R80'
p33
asS'probeTraining'
p34
(lp35
S'R10'
p36
asS'target'
p37
g28
ssS'completed'
p38
I0
sS'patterns'
p39
(dp40
g32
(dp41
S'defn'
p42
(dp43
S'Vb'
p44
(dp45
S'onset'
p46
I10
sS'dur'
p47
I80
ssssg30
(dp48
g42
(dp49
S'Si'
p50
(dp51
g46
I10
sg47
I80
ssssg31
(dp52
g42
(dp53
S'Gw'
p54
(dp55
g46
I10
sg47
I80
ssssg29
(dp56
g42
(dp57
S'Aa'
p58
(dp59
g46
I10
sg47
I80
ssssg33
(dp60
g42
(dp61
S'R'
p62
(dp63
g46
I10
sg47
I80
sssssS'post'
p64
(dp65
S'right_plot'
p66
I0
sS'left_plot'
p67
I0
sS'target_right_acc'
p68
I0
sS'target_left_acc'
p69
I0
sS'comments'
p70
S''
p71
sS'quit-o-meter'
p72
I0
sS'total_trials'
p73
I0
sS'h5file'
p74
S'0'
p75
sS'date'
p76
g71
sS'result_img'
p77
g71
sS'id'
p78
S'1'
p79
ssS'odors'
p80
(dp81
S'probeTraining'
p82
(lp83
sS'probe'
p84
(lp85
sS'target'
p86
(lp87
sS'nontarget'
p88
(lp89
ssaa(dp90
S'list'
p91
(dp92
g58
(lp93
I21
aI10
asg54
(lp94
I25
aI11
asg50
(lp95
I23
aI10
asg62
(lp96
(I19
I10
tp97
a(I19
I9
tp98
a(I20
I9
tp99
a(I21
I9
tp100
a(I22
I9
tp101
a(I23
I9
tp102
a(I24
I9
tp103
a(I25
I9
tp104
a(I26
I9
tp105
a(I27
I9
tp106
a(I27
I10
tp107
a(I26
I10
tp108
a(I25
I10
tp109
a(I24
I10
tp110
a(I22
I10
tp111
a(I20
I10
tp112
a(I19
I11
tp113
a(I20
I11
tp114
a(I21
I11
tp115
a(I22
I11
tp116
a(I23
I11
tp117
a(I24
I11
tp118
a(I26
I11
tp119
a(I27
I11
tp120
a(I27
I12
tp121
a(I25
I12
tp122
a(I20
I13
tp123
a(I19
I13
tp124
asg44
(lp125
I25
aI13
assS'emulation'
p126
I00
sS'finalized'
p127
I0
sa.